(dp0
S'global_data'
p1
(dp2
S'control'
p3
(dp4
S'route'
p5
V9.1.1.1
p6
sS'mask'
p7
I24
sS'ec2'
p8
V9.1.1.1
p9
ssS'major'
p10
I1
sS'management'
p11
(dp12
S'start'
p13
V172.20.0.10
p14
sS'cidr'
p15
V172.20.0.0/24
p16
sS'vlan'
p17
I6
sS'end'
p18
V172.20.0.250
p19
ssS'dns2'
p20
V8.8.4.4
p21
sS'dns1'
p22
V11.1.1.1
p23
sS'storage'
p24
(dp25
g13
V10.3.3.10
p26
sg15
V10.3.3.0/24
p27
sg17
I3
sg18
V10.3.3.200
p28
ssS'auto_routes'
p29
I01
sS'bond_options'
p30
V
p31
sS'version'
p32
I2
sS'external'
p33
(dp34
S'bridge'
p35
V''
p36
sg18
V11.1.1.123
p37
sg17
I1
sg13
V11.1.1.111
p38
sg15
V11.0.0.0/8
p39
sS'gateway'
p40
V11.1.1.1
p41
ssS'internal_api'
p42
(dp43
g13
V10.2.2.10
p44
sg15
V10.2.2.0/24
p45
sg17
I2
sg18
V10.2.2.200
p46
ssS'ipv6'
p47
I00
sS'storage_mgmt'
p48
(dp49
g13
V10.4.4.10
p50
sg15
V10.4.4.0/24
p51
sg17
I4
sg18
V10.4.4.200
p52
ssS'minor'
p53
I2
sS'tenant'
p54
(dp55
g13
V10.5.5.10
p56
sg15
V10.5.5.0/24
p57
sg17
I5
sg18
V10.5.5.200
p58
sssS'data'
p59
(dp60
S'cinder-storage.yaml'
p61
(lp62
(dp63
Vdns_servers
p64
V{get_param: DnsServers}
p65
sVaddresses
p66
(lp67
sVnetwork
p68
VNone
p69
sVmtu
p70
I-1
sS'members'
p71
(lp72
(dp73
Vaddresses
p74
(lp75
sVnetwork
p76
VNone
p77
sVprimary
p78
I01
sVmtu
p79
I-1
sg71
(lp80
sVroutes
p81
(lp82
sVuse_dhcp
p83
I00
sVtype
p84
Vinterface
p85
sVname
p86
Vnic1
p87
sa(dp88
Vaddresses
p89
(lp90
sVnetwork
p91
VInternalApi
p92
sVmtu
p93
I-1
sg71
(lp94
sVroutes
p95
(lp96
sVtype
p97
Vvlan
p98
sVvlan_id
p99
g31
sVname
p100
VVLAN
p101
sa(dp102
Vaddresses
p103
(lp104
sVnetwork
p105
VStorage
p106
sVmtu
p107
I-1
sg71
(lp108
sVroutes
p109
(lp110
sVtype
p111
Vvlan
p112
sVvlan_id
p113
g31
sVname
p114
VVLAN
p115
sa(dp116
Vaddresses
p117
(lp118
sVnetwork
p119
VStorageMgmt
p120
sVmtu
p121
I-1
sg71
(lp122
sVroutes
p123
(lp124
sVtype
p125
Vvlan
p126
sVvlan_id
p127
g31
sVname
p128
VVLAN
p129
sasVroutes
p130
(lp131
sVuse_dhcp
p132
I00
sVtype
p133
Vovs_bridge
p134
sVname
p135
Vbr-ex
p136
sa(dp137
Vaddresses
p138
(lp139
sVnetwork
p140
VControlPlane
p141
sVprimary
p142
I01
sVmtu
p143
I-1
sg71
(lp144
sVroutes
p145
(lp146
sVuse_dhcp
p147
I00
sVtype
p148
Vinterface
p149
sVname
p150
Vnic2
p151
sasS'ceph-storage.yaml'
p152
(lp153
(dp154
Vdns_servers
p155
V{get_param: DnsServers}
p156
sVaddresses
p157
(lp158
sVnetwork
p159
VNone
p160
sVmtu
p161
I-1
sg71
(lp162
(dp163
Vaddresses
p164
(lp165
sVnetwork
p166
VNone
p167
sVprimary
p168
I01
sVmtu
p169
I-1
sg71
(lp170
sVroutes
p171
(lp172
sVuse_dhcp
p173
I00
sVtype
p174
Vinterface
p175
sVname
p176
Vnic1
p177
sa(dp178
Vaddresses
p179
(lp180
sVnetwork
p181
VStorage
p182
sVmtu
p183
I-1
sg71
(lp184
sVroutes
p185
(lp186
sVtype
p187
Vvlan
p188
sVvlan_id
p189
g31
sVname
p190
VVLAN
p191
sa(dp192
Vaddresses
p193
(lp194
sVnetwork
p195
VStorageMgmt
p196
sVmtu
p197
I-1
sg71
(lp198
sVroutes
p199
(lp200
sVtype
p201
Vvlan
p202
sVvlan_id
p203
g31
sVname
p204
VVLAN
p205
sasVroutes
p206
(lp207
sVuse_dhcp
p208
I00
sVtype
p209
Vovs_bridge
p210
sVname
p211
Vbr-ex
p212
sa(dp213
Vaddresses
p214
(lp215
sVnetwork
p216
VControlPlane
p217
sVprimary
p218
I01
sVmtu
p219
I-1
sg71
(lp220
sVroutes
p221
(lp222
sVuse_dhcp
p223
I00
sVtype
p224
Vinterface
p225
sVname
p226
Vnic2
p227
sasS'controller.yaml'
p228
(lp229
(dp230
Vdns_servers
p231
V{get_param: DnsServers}
p232
sVaddresses
p233
(lp234
sVnetwork
p235
VExternal
p236
sVmtu
p237
I-1
sg71
(lp238
(dp239
Vaddresses
p240
(lp241
sVnetwork
p242
VNone
p243
sVprimary
p244
I01
sVmtu
p245
I-1
sg71
(lp246
sVroutes
p247
(lp248
sVuse_dhcp
p249
I00
sVtype
p250
Vinterface
p251
sVname
p252
Vnic1
p253
sa(dp254
Vaddresses
p255
(lp256
sVnetwork
p257
VInternalApi
p258
sVmtu
p259
I-1
sg71
(lp260
sVroutes
p261
(lp262
sVtype
p263
Vvlan
p264
sVvlan_id
p265
g31
sVname
p266
VVLAN
p267
sa(dp268
Vaddresses
p269
(lp270
sVnetwork
p271
VStorage
p272
sVmtu
p273
I-1
sg71
(lp274
sVroutes
p275
(lp276
sVtype
p277
Vvlan
p278
sVvlan_id
p279
g31
sVname
p280
VVLAN
p281
sa(dp282
Vaddresses
p283
(lp284
sVnetwork
p285
VStorageMgmt
p286
sVmtu
p287
I-1
sg71
(lp288
sVroutes
p289
(lp290
sVtype
p291
Vvlan
p292
sVvlan_id
p293
g31
sVname
p294
VVLAN
p295
sa(dp296
Vaddresses
p297
(lp298
sVnetwork
p299
VTenant
p300
sVmtu
p301
I-1
sg71
(lp302
sVroutes
p303
(lp304
sVtype
p305
Vvlan
p306
sVvlan_id
p307
g31
sVname
p308
VVLAN
p309
sasVroutes
p310
(lp311
sVuse_dhcp
p312
I00
sVtype
p313
Vovs_bridge
p314
sVname
p315
Vbr-ex
p316
sa(dp317
Vaddresses
p318
(lp319
sVnetwork
p320
VControlPlane
p321
sVprimary
p322
I01
sVmtu
p323
I-1
sg71
(lp324
sVroutes
p325
(lp326
sVuse_dhcp
p327
I00
sVtype
p328
Vinterface
p329
sVname
p330
Vnic2
p331
sasS'swift-storage.yaml'
p332
(lp333
(dp334
Vdns_servers
p335
V{get_param: DnsServers}
p336
sVaddresses
p337
(lp338
sVnetwork
p339
VNone
p340
sVmtu
p341
I-1
sg71
(lp342
(dp343
Vaddresses
p344
(lp345
sVnetwork
p346
VNone
p347
sVprimary
p348
I01
sVmtu
p349
I-1
sg71
(lp350
sVroutes
p351
(lp352
sVuse_dhcp
p353
I00
sVtype
p354
Vinterface
p355
sVname
p356
Vnic1
p357
sa(dp358
Vaddresses
p359
(lp360
sVnetwork
p361
VInternalApi
p362
sVmtu
p363
I-1
sg71
(lp364
sVroutes
p365
(lp366
sVtype
p367
Vvlan
p368
sVvlan_id
p369
g31
sVname
p370
VVLAN
p371
sa(dp372
Vaddresses
p373
(lp374
sVnetwork
p375
VStorage
p376
sVmtu
p377
I-1
sg71
(lp378
sVroutes
p379
(lp380
sVtype
p381
Vvlan
p382
sVvlan_id
p383
g31
sVname
p384
VVLAN
p385
sa(dp386
Vaddresses
p387
(lp388
sVnetwork
p389
VStorageMgmt
p390
sVmtu
p391
I-1
sg71
(lp392
sVroutes
p393
(lp394
sVtype
p395
Vvlan
p396
sVvlan_id
p397
g31
sVname
p398
VVLAN
p399
sasVroutes
p400
(lp401
sVuse_dhcp
p402
I00
sVtype
p403
Vovs_bridge
p404
sVname
p405
Vbr-ex
p406
sa(dp407
Vaddresses
p408
(lp409
sVnetwork
p410
VControlPlane
p411
sVprimary
p412
I01
sVmtu
p413
I-1
sg71
(lp414
sVroutes
p415
(lp416
sVuse_dhcp
p417
I00
sVtype
p418
Vinterface
p419
sVname
p420
Vnic2
p421
sasS'compute.yaml'
p422
(lp423
(dp424
Vdns_servers
p425
V{get_param: DnsServers}
p426
sVaddresses
p427
(lp428
sVnetwork
p429
VNone
p430
sVmtu
p431
I-1
sg71
(lp432
(dp433
Vaddresses
p434
(lp435
sVnetwork
p436
VNone
p437
sVprimary
p438
I01
sVmtu
p439
I-1
sg71
(lp440
sVroutes
p441
(lp442
sVuse_dhcp
p443
I00
sVtype
p444
Vinterface
p445
sVname
p446
Vnic1
p447
sa(dp448
Vaddresses
p449
(lp450
sVnetwork
p451
VInternalApi
p452
sVmtu
p453
I-1
sg71
(lp454
sVroutes
p455
(lp456
sVtype
p457
Vvlan
p458
sVvlan_id
p459
g31
sVname
p460
VVLAN
p461
sa(dp462
Vaddresses
p463
(lp464
sVnetwork
p465
VStorage
p466
sVmtu
p467
I-1
sg71
(lp468
sVroutes
p469
(lp470
sVtype
p471
Vvlan
p472
sVvlan_id
p473
g31
sVname
p474
VVLAN
p475
sa(dp476
Vaddresses
p477
(lp478
sVnetwork
p479
VTenant
p480
sVmtu
p481
I-1
sg71
(lp482
sVroutes
p483
(lp484
sVtype
p485
Vvlan
p486
sVvlan_id
p487
g31
sVname
p488
VVLAN
p489
sasVroutes
p490
(lp491
sVuse_dhcp
p492
I00
sVtype
p493
Vovs_bridge
p494
sVname
p495
Vbr-ex
p496
sa(dp497
Vaddresses
p498
(lp499
sVnetwork
p500
VControlPlane
p501
sVprimary
p502
I01
sVmtu
p503
I-1
sg71
(lp504
sVroutes
p505
(lp506
sVuse_dhcp
p507
I00
sVtype
p508
Vinterface
p509
sVname
p510
Vnic2
p511
sass.