(dp0
S'global_data'
p1
(dp2
S'control'
p3
(dp4
S'route'
p5
V9.1.1.1
p6
sS'mask'
p7
I24
sS'ec2'
p8
V9.1.1.1
p9
ssS'major'
p10
I1
sS'management'
p11
(dp12
S'start'
p13
V172.20.0.10
p14
sS'cidr'
p15
V172.20.0.0/24
p16
sS'vlan'
p17
I6
sS'end'
p18
V172.20.0.250
p19
ssS'dns2'
p20
V8.8.4.4
p21
sS'dns1'
p22
V11.1.1.1
p23
sS'storage'
p24
(dp25
g13
V10.3.3.10
p26
sg15
V10.3.3.0/24
p27
sg17
I3
sg18
V10.3.3.200
p28
ssS'auto_routes'
p29
I01
sS'bond_options'
p30
V
p31
sS'external'
p32
(dp33
S'bridge'
p34
V''
p35
sg18
V11.1.1.123
p36
sg17
I1
sg13
V11.1.1.111
p37
sg15
V11.0.0.0/8
p38
sS'gateway'
p39
V11.1.1.1
p40
ssS'internal_api'
p41
(dp42
g13
V10.2.2.10
p43
sg15
V10.2.2.0/24
p44
sg17
I2
sg18
V10.2.2.200
p45
ssS'ipv6'
p46
I00
sS'storage_mgmt'
p47
(dp48
g13
V10.4.4.10
p49
sg15
V10.4.4.0/24
p50
sg17
I4
sg18
V10.4.4.200
p51
ssS'minor'
p52
I2
sS'tenant'
p53
(dp54
g13
V10.5.5.10
p55
sg15
V10.5.5.0/24
p56
sg17
I5
sg18
V10.5.5.200
p57
sssS'data'
p58
(dp59
S'cinder-storage.yaml'
p60
(lp61
(dp62
Vdns_servers
p63
V{get_param: DnsServers}
p64
sVaddresses
p65
(lp66
sVmtu
p67
I-1
sVnetwork
p68
VNone
p69
sVmembers
p70
(lp71
(dp72
Vaddresses
p73
(lp74
sVnetwork
p75
VNone
p76
sVprimary
p77
I01
sVmtu
p78
I-1
sS'members'
p79
(lp80
sVroutes
p81
(lp82
sVuse_dhcp
p83
I00
sVtype
p84
Vinterface
p85
sVname
p86
Vnic1
p87
sa(dp88
Vaddresses
p89
(lp90
sVnetwork
p91
VInternalApi
p92
sVmtu
p93
I-1
sg79
(lp94
sVroutes
p95
(lp96
sVtype
p97
Vvlan
p98
sVvlan_id
p99
g31
sVname
p100
VVLAN
p101
sa(dp102
Vaddresses
p103
(lp104
sVnetwork
p105
VStorage
p106
sVmtu
p107
I-1
sg79
(lp108
sVroutes
p109
(lp110
sVtype
p111
Vvlan
p112
sVvlan_id
p113
g31
sVname
p114
VVLAN
p115
sa(dp116
Vaddresses
p117
(lp118
sVnetwork
p119
VStorageMgmt
p120
sVmtu
p121
I-1
sg79
(lp122
sVroutes
p123
(lp124
sVtype
p125
Vvlan
p126
sVvlan_id
p127
g31
sVname
p128
VVLAN
p129
sasVroutes
p130
(lp131
sVuse_dhcp
p132
I00
sVtype
p133
Vovs_bridge
p134
sVname
p135
Vbr-ex
p136
sa(dp137
Vaddresses
p138
(lp139
sVnetwork
p140
VControlPlane
p141
sVprimary
p142
I01
sVmtu
p143
I-1
sg79
(lp144
sVroutes
p145
(lp146
sVuse_dhcp
p147
I00
sVtype
p148
Vinterface
p149
sVname
p150
Vnic2
p151
sasS'ceph-storage.yaml'
p152
(lp153
(dp154
Vdns_servers
p155
V{get_param: DnsServers}
p156
sVaddresses
p157
(lp158
sVmtu
p159
I-1
sVnetwork
p160
VNone
p161
sVmembers
p162
(lp163
(dp164
Vaddresses
p165
(lp166
sVnetwork
p167
VNone
p168
sVprimary
p169
I01
sVmtu
p170
I-1
sg79
(lp171
sVroutes
p172
(lp173
sVuse_dhcp
p174
I00
sVtype
p175
Vinterface
p176
sVname
p177
Vnic1
p178
sa(dp179
Vaddresses
p180
(lp181
sVnetwork
p182
VStorage
p183
sVmtu
p184
I-1
sg79
(lp185
sVroutes
p186
(lp187
sVtype
p188
Vvlan
p189
sVvlan_id
p190
g31
sVname
p191
VVLAN
p192
sa(dp193
Vaddresses
p194
(lp195
sVnetwork
p196
VStorageMgmt
p197
sVmtu
p198
I-1
sg79
(lp199
sVroutes
p200
(lp201
sVtype
p202
Vvlan
p203
sVvlan_id
p204
g31
sVname
p205
VVLAN
p206
sasVroutes
p207
(lp208
sVuse_dhcp
p209
I00
sVtype
p210
Vovs_bridge
p211
sVname
p212
Vbr-ex
p213
sa(dp214
Vaddresses
p215
(lp216
sVnetwork
p217
VControlPlane
p218
sVprimary
p219
I01
sVmtu
p220
I-1
sg79
(lp221
sVroutes
p222
(lp223
sVuse_dhcp
p224
I00
sVtype
p225
Vinterface
p226
sVname
p227
Vnic2
p228
sasS'controller.yaml'
p229
(lp230
(dp231
Vdns_servers
p232
V{get_param: DnsServers}
p233
sVaddresses
p234
(lp235
sVmtu
p236
I-1
sVnetwork
p237
VExternal
p238
sVmembers
p239
(lp240
(dp241
Vaddresses
p242
(lp243
sVnetwork
p244
VNone
p245
sVprimary
p246
I01
sVmtu
p247
I-1
sg79
(lp248
sVroutes
p249
(lp250
sVuse_dhcp
p251
I00
sVtype
p252
Vinterface
p253
sVname
p254
Vnic1
p255
sa(dp256
Vaddresses
p257
(lp258
sVnetwork
p259
VInternalApi
p260
sVmtu
p261
I-1
sg79
(lp262
sVroutes
p263
(lp264
sVtype
p265
Vvlan
p266
sVvlan_id
p267
g31
sVname
p268
VVLAN
p269
sa(dp270
Vaddresses
p271
(lp272
sVnetwork
p273
VStorage
p274
sVmtu
p275
I-1
sg79
(lp276
sVroutes
p277
(lp278
sVtype
p279
Vvlan
p280
sVvlan_id
p281
g31
sVname
p282
VVLAN
p283
sa(dp284
Vaddresses
p285
(lp286
sVnetwork
p287
VStorageMgmt
p288
sVmtu
p289
I-1
sg79
(lp290
sVroutes
p291
(lp292
sVtype
p293
Vvlan
p294
sVvlan_id
p295
g31
sVname
p296
VVLAN
p297
sa(dp298
Vaddresses
p299
(lp300
sVnetwork
p301
VTenant
p302
sVmtu
p303
I-1
sg79
(lp304
sVroutes
p305
(lp306
sVtype
p307
Vvlan
p308
sVvlan_id
p309
g31
sVname
p310
VVLAN
p311
sasVroutes
p312
(lp313
sVuse_dhcp
p314
I00
sVtype
p315
Vovs_bridge
p316
sVname
p317
Vbr-ex
p318
sa(dp319
Vaddresses
p320
(lp321
sVnetwork
p322
VControlPlane
p323
sVprimary
p324
I01
sVmtu
p325
I-1
sg79
(lp326
sVroutes
p327
(lp328
sVuse_dhcp
p329
I00
sVtype
p330
Vinterface
p331
sVname
p332
Vnic2
p333
sasS'swift-storage.yaml'
p334
(lp335
(dp336
Vdns_servers
p337
V{get_param: DnsServers}
p338
sVaddresses
p339
(lp340
sVmtu
p341
I-1
sVnetwork
p342
VNone
p343
sVmembers
p344
(lp345
(dp346
Vaddresses
p347
(lp348
sVnetwork
p349
VNone
p350
sVprimary
p351
I01
sVmtu
p352
I-1
sg79
(lp353
sVroutes
p354
(lp355
sVuse_dhcp
p356
I00
sVtype
p357
Vinterface
p358
sVname
p359
Vnic1
p360
sa(dp361
Vaddresses
p362
(lp363
sVnetwork
p364
VInternalApi
p365
sVmtu
p366
I-1
sg79
(lp367
sVroutes
p368
(lp369
sVtype
p370
Vvlan
p371
sVvlan_id
p372
g31
sVname
p373
VVLAN
p374
sa(dp375
Vaddresses
p376
(lp377
sVnetwork
p378
VStorage
p379
sVmtu
p380
I-1
sg79
(lp381
sVroutes
p382
(lp383
sVtype
p384
Vvlan
p385
sVvlan_id
p386
g31
sVname
p387
VVLAN
p388
sa(dp389
Vaddresses
p390
(lp391
sVnetwork
p392
VStorageMgmt
p393
sVmtu
p394
I-1
sg79
(lp395
sVroutes
p396
(lp397
sVtype
p398
Vvlan
p399
sVvlan_id
p400
g31
sVname
p401
VVLAN
p402
sasVroutes
p403
(lp404
sVuse_dhcp
p405
I00
sVtype
p406
Vovs_bridge
p407
sVname
p408
Vbr-ex
p409
sa(dp410
Vaddresses
p411
(lp412
sVnetwork
p413
VControlPlane
p414
sVprimary
p415
I01
sVmtu
p416
I-1
sg79
(lp417
sVroutes
p418
(lp419
sVuse_dhcp
p420
I00
sVtype
p421
Vinterface
p422
sVname
p423
Vnic2
p424
sasS'compute.yaml'
p425
(lp426
(dp427
Vdns_servers
p428
V{get_param: DnsServers}
p429
sVaddresses
p430
(lp431
sVmtu
p432
I-1
sVnetwork
p433
VNone
p434
sVmembers
p435
(lp436
(dp437
Vaddresses
p438
(lp439
sVnetwork
p440
VNone
p441
sVprimary
p442
I01
sVmtu
p443
I-1
sg79
(lp444
sVroutes
p445
(lp446
sVuse_dhcp
p447
I00
sVtype
p448
Vinterface
p449
sVname
p450
Vnic1
p451
sa(dp452
Vaddresses
p453
(lp454
sVnetwork
p455
VInternalApi
p456
sVmtu
p457
I-1
sg79
(lp458
sVroutes
p459
(lp460
sVtype
p461
Vvlan
p462
sVvlan_id
p463
g31
sVname
p464
VVLAN
p465
sa(dp466
Vaddresses
p467
(lp468
sVnetwork
p469
VStorage
p470
sVmtu
p471
I-1
sg79
(lp472
sVroutes
p473
(lp474
sVtype
p475
Vvlan
p476
sVvlan_id
p477
g31
sVname
p478
VVLAN
p479
sa(dp480
Vaddresses
p481
(lp482
sVnetwork
p483
VTenant
p484
sVmtu
p485
I-1
sg79
(lp486
sVroutes
p487
(lp488
sVtype
p489
Vvlan
p490
sVvlan_id
p491
g31
sVname
p492
VVLAN
p493
sasVroutes
p494
(lp495
sVuse_dhcp
p496
I00
sVtype
p497
Vovs_bridge
p498
sVname
p499
Vbr-ex
p500
sa(dp501
Vaddresses
p502
(lp503
sVnetwork
p504
VControlPlane
p505
sVprimary
p506
I01
sVmtu
p507
I-1
sg79
(lp508
sVroutes
p509
(lp510
sVuse_dhcp
p511
I00
sVtype
p512
Vinterface
p513
sVname
p514
Vnic2
p515
sass.