(dp0
S'global_data'
p1
(dp2
S'control'
p3
(dp4
S'route'
p5
V9.1.1.1
p6
sS'mask'
p7
I24
sS'ec2'
p8
V9.1.1.1
p9
ssS'major'
p10
I1
sS'management'
p11
(dp12
S'start'
p13
V172.20.0.10
p14
sS'cidr'
p15
V172.20.0.0/24
p16
sS'vlan'
p17
I6
sS'end'
p18
V172.20.0.250
p19
ssS'dns2'
p20
V8.8.4.4
p21
sS'dns1'
p22
V8.8.8.8
p23
sS'storage'
p24
(dp25
g13
V172.18.0.10
p26
sg15
V172.18.0.0/24
p27
sg17
I3
sg18
V172.18.0.250
p28
ssS'bond_options'
p29
V
p30
sS'external'
p31
(dp32
S'bridge'
p33
Vbr-ex
p34
sg18
V8.1.1.50
p35
sg17
I1
sg13
V8.1.1.10
p36
sg15
V8.1.1.0/24
p37
sS'gateway'
p38
V8.1.1.1
p39
ssS'internal_api'
p40
(dp41
g13
V172.17.0.10
p42
sg15
V172.17.0.0/24
p43
sg17
I2
sg18
V172.17.0.250
p44
ssS'storage_mgmt'
p45
(dp46
g13
V172.19.0.10
p47
sg15
V172.19.0.0/24
p48
sg17
I4
sg18
V172.19.0.250
p49
ssS'minor'
p50
I2
sS'tenant'
p51
(dp52
g13
V172.16.0.10
p53
sg15
V172.16.0.0/24
p54
sg17
I5
sg18
V172.16.0.250
p55
sssS'data'
p56
(dp57
S'cinder-storage.yaml'
p58
(lp59
sS'ceph-storage.yaml'
p60
(lp61
sS'controller.yaml'
p62
(lp63
(dp64
Vaddresses
p65
(lp66
sVnetwork
p67
VControlPlane
p68
sVprimary
p69
I01
sVmtu
p70
I-1
sS'members'
p71
(lp72
sVroutes
p73
(lp74
sVuse_dhcp
p75
I00
sVtype
p76
Vinterface
p77
sVname
p78
Vnic1
p79
sa(dp80
Vdns_servers
p81
V{get_param: DnsServers}
p82
sVaddresses
p83
(lp84
sVnetwork
p85
VExternal
p86
sVmtu
p87
I-1
sg71
(lp88
(dp89
Vname
p90
Vbond1
p91
sVbond_type
p92
Vovs
p93
sVovs_options
p94
V{get_param: BondInterfaceOvsOptions}
p95
sVmtu
p96
I-1
sg71
(lp97
(dp98
Vaddresses
p99
(lp100
sVnetwork
p101
VNone
p102
sVprimary
p103
I01
sVmtu
p104
I-1
sVroutes
p105
(lp106
sVuse_dhcp
p107
I00
sVtype
p108
Vinterface
p109
sVname
p110
Vnic2
p111
sa(dp112
Vaddresses
p113
(lp114
sVnetwork
p115
VNone
p116
sVprimary
p117
I00
sVmtu
p118
I-1
sVroutes
p119
(lp120
sVuse_dhcp
p121
I00
sVtype
p122
Vinterface
p123
sVname
p124
Vnic3
p125
sasVtype
p126
Vovs_bond
p127
sVnetwork
p128
VNone
p129
sasVroutes
p130
(lp131
sVuse_dhcp
p132
I00
sVtype
p133
Vovs_bridge
p134
sVname
p135
Vbr-ex
p136
sasS'swift-storage.yaml'
p137
(lp138
sS'compute.yaml'
p139
(lp140
(dp141
Vdns_servers
p142
V{get_param: DnsServers}
p143
sVaddresses
p144
(lp145
sVnetwork
p146
VControlPlane
p147
sVmtu
p148
I-1
sg71
(lp149
(dp150
Vaddresses
p151
(lp152
sVnetwork
p153
VNone
p154
sVprimary
p155
I01
sVmtu
p156
I-1
sg71
(lp157
sVroutes
p158
(lp159
sVuse_dhcp
p160
I00
sVtype
p161
Vinterface
p162
sVname
p163
Vnic1
p164
sasVroutes
p165
(lp166
sVuse_dhcp
p167
I00
sVtype
p168
Vovs_bridge
p169
sVname
p170
Vbr-ex
p171
sass.