(dp0
S'global_data'
p1
(dp2
S'control'
p3
(dp4
S'route'
p5
V9.1.1.1
p6
sS'mask'
p7
I24
sS'ec2'
p8
V9.1.1.1
p9
ssS'major'
p10
I1
sS'management'
p11
(dp12
S'start'
p13
V172.20.0.10
p14
sS'cidr'
p15
V172.20.0.0/24
p16
sS'vlan'
p17
I6
sS'end'
p18
V172.20.0.250
p19
ssS'dns2'
p20
V8.8.4.4
p21
sS'dns1'
p22
V8.8.8.8
p23
sS'storage'
p24
(dp25
g13
V172.18.0.10
p26
sg15
V172.18.0.0/24
p27
sg17
I3
sg18
V172.18.0.250
p28
ssS'bond_options'
p29
V
p30
sS'external'
p31
(dp32
S'bridge'
p33
Vbr-ex
p34
sg18
V8.1.1.50
p35
sg17
I1
sg13
V8.1.1.10
p36
sg15
V8.1.1.0/24
p37
sS'gateway'
p38
V8.1.1.1
p39
ssS'internal_api'
p40
(dp41
g13
V172.17.0.10
p42
sg15
V172.17.0.0/24
p43
sg17
I2
sg18
V172.17.0.250
p44
ssS'storage_mgmt'
p45
(dp46
g13
V172.19.0.10
p47
sg15
V172.19.0.0/24
p48
sg17
I4
sg18
V172.19.0.250
p49
ssS'minor'
p50
I2
sS'tenant'
p51
(dp52
g13
V172.16.0.10
p53
sg15
V172.16.0.0/24
p54
sg17
I5
sg18
V172.16.0.250
p55
sssS'data'
p56
(dp57
S'cinder-storage.yaml'
p58
(lp59
sS'ceph-storage.yaml'
p60
(lp61
(dp62
Vdns_servers
p63
V{get_param: DnsServers}
p64
sVaddresses
p65
(lp66
sVmtu
p67
I-1
sVnetwork
p68
VControlPlane
p69
sVmembers
p70
(lp71
(dp72
Vaddresses
p73
(lp74
sVnetwork
p75
VNone
p76
sVprimary
p77
I01
sVmtu
p78
I-1
sS'members'
p79
(lp80
sVroutes
p81
(lp82
sVuse_dhcp
p83
I00
sVtype
p84
Vinterface
p85
sVname
p86
Vnic1
p87
sasVroutes
p88
(lp89
sVuse_dhcp
p90
I00
sVtype
p91
Vovs_bridge
p92
sVname
p93
Vbr-storage
p94
sasS'controller.yaml'
p95
(lp96
(dp97
Vaddresses
p98
(lp99
sVnetwork
p100
VControlPlane
p101
sVprimary
p102
I01
sVmtu
p103
I-1
sg79
(lp104
sVroutes
p105
(lp106
sVuse_dhcp
p107
I00
sVtype
p108
Vinterface
p109
sVname
p110
Vnic1
p111
sa(dp112
Vdns_servers
p113
V{get_param: DnsServers}
p114
sVaddresses
p115
(lp116
sVnetwork
p117
VExternal
p118
sVmtu
p119
I-1
sg79
(lp120
(dp121
Vname
p122
Vbond1
p123
sVbond_type
p124
Vlinux
p125
sVovs_options
p126
V{get_param: BondInterfaceOvsOptions}
p127
sVmtu
p128
I-1
sg79
(lp129
(dp130
Vaddresses
p131
(lp132
sVnetwork
p133
VNone
p134
sVprimary
p135
I01
sVmtu
p136
I-1
sVroutes
p137
(lp138
sVuse_dhcp
p139
I00
sVtype
p140
Vinterface
p141
sVname
p142
Veth1
p143
sa(dp144
Vaddresses
p145
(lp146
sVnetwork
p147
VNone
p148
sVprimary
p149
I00
sVmtu
p150
I-1
sVroutes
p151
(lp152
sVuse_dhcp
p153
I00
sVtype
p154
Vinterface
p155
sVname
p156
Veth2
p157
sasVtype
p158
Vovs_bond
p159
sVnetwork
p160
VNone
p161
sasVroutes
p162
(lp163
sVuse_dhcp
p164
I00
sVtype
p165
Vovs_bridge
p166
sVname
p167
Vbr-ex
p168
sasS'swift-storage.yaml'
p169
(lp170
sS'compute.yaml'
p171
(lp172
(dp173
Vdns_servers
p174
V{get_param: DnsServers}
p175
sVaddresses
p176
(lp177
sVnetwork
p178
VControlPlane
p179
sVmtu
p180
I-1
sg79
(lp181
(dp182
Vaddresses
p183
(lp184
sVnetwork
p185
VNone
p186
sVprimary
p187
I01
sVmtu
p188
I-1
sg79
(lp189
sVroutes
p190
(lp191
sVuse_dhcp
p192
I00
sVtype
p193
Vinterface
p194
sVname
p195
Vnic1
p196
sasVroutes
p197
(lp198
sVuse_dhcp
p199
I00
sVtype
p200
Vovs_bridge
p201
sVname
p202
Vbr-ex
p203
sass.