(dp0
S'global_data'
p1
(dp2
S'control'
p3
(dp4
S'route'
p5
V9.1.1.1
p6
sS'mask'
p7
I24
sS'ec2'
p8
V9.1.1.1
p9
ssS'major'
p10
I1
sS'management'
p11
(dp12
S'start'
p13
V172.20.0.10
p14
sS'cidr'
p15
V172.20.0.0/24
p16
sS'vlan'
p17
I6
sS'end'
p18
V172.20.0.250
p19
ssS'dns2'
p20
V8.8.4.4
p21
sS'dns1'
p22
V11.1.1.1
p23
sS'storage'
p24
(dp25
g13
V172.18.0.10
p26
sg15
V172.18.0.0/24
p27
sg17
I3
sg18
V172.18.0.250
p28
ssS'bond_options'
p29
V
p30
sS'external'
p31
(dp32
S'bridge'
p33
V''
p34
sg18
V8.1.1.50
p35
sg17
I1
sg13
V8.1.1.10
p36
sg15
V8.1.1.0/24
p37
sS'gateway'
p38
V8.1.1.1
p39
ssS'internal_api'
p40
(dp41
g13
V172.17.0.10
p42
sg15
V172.17.0.0/24
p43
sg17
I2
sg18
V172.17.0.250
p44
ssS'storage_mgmt'
p45
(dp46
g13
V172.19.0.10
p47
sg15
V172.19.0.0/24
p48
sg17
I4
sg18
V172.19.0.250
p49
ssS'minor'
p50
I2
sS'tenant'
p51
(dp52
g13
V172.16.0.10
p53
sg15
V172.16.0.0/24
p54
sg17
I5
sg18
V172.16.0.250
p55
sssS'data'
p56
(dp57
S'cinder-storage.yaml'
p58
(lp59
sS'ceph-storage.yaml'
p60
(lp61
sS'controller.yaml'
p62
(lp63
(dp64
Vaddresses
p65
(lp66
sVnetwork
p67
VControlPlane
p68
sVprimary
p69
I01
sVmtu
p70
I-1
sS'members'
p71
(lp72
sVroutes
p73
(lp74
sVuse_dhcp
p75
I00
sVtype
p76
Vinterface
p77
sVname
p78
Vnic1
p79
sa(dp80
Vdns_servers
p81
V{get_param: DnsServers}
p82
sVaddresses
p83
(lp84
sVmtu
p85
I-1
sVnetwork
p86
VExternal
p87
sVmembers
p88
(lp89
(dp90
Vaddresses
p91
(lp92
sVnetwork
p93
VNone
p94
sVprimary
p95
I01
sVmtu
p96
I-1
sg71
(lp97
sVroutes
p98
(lp99
sVuse_dhcp
p100
I00
sVtype
p101
Vinterface
p102
sVname
p103
Vnic2
p104
sasVroutes
p105
(lp106
sVuse_dhcp
p107
I00
sVtype
p108
Vovs_bridge
p109
sVname
p110
Vbr-ex
p111
sa(dp112
Vaddresses
p113
(lp114
sVnetwork
p115
VInternalApi
p116
sVprimary
p117
I01
sVmtu
p118
I-1
sg71
(lp119
sVroutes
p120
(lp121
sVuse_dhcp
p122
I00
sVtype
p123
Vinterface
p124
sVname
p125
Vnic3
p126
sa(dp127
Vaddresses
p128
(lp129
sVnetwork
p130
VStorage
p131
sVprimary
p132
I01
sVmtu
p133
I-1
sg71
(lp134
sVroutes
p135
(lp136
sVuse_dhcp
p137
I00
sVtype
p138
Vinterface
p139
sVname
p140
Vnic4
p141
sa(dp142
Vaddresses
p143
(lp144
sVnetwork
p145
VStorageMgmt
p146
sVprimary
p147
I01
sVmtu
p148
I-1
sg71
(lp149
sVroutes
p150
(lp151
sVuse_dhcp
p152
I00
sVtype
p153
Vinterface
p154
sVname
p155
Vnic5
p156
sa(dp157
Vdns_servers
p158
V{get_param: DnsServers}
p159
sVaddresses
p160
(lp161
sVmtu
p162
I-1
sVnetwork
p163
VTenant
p164
sVmembers
p165
(lp166
(dp167
Vaddresses
p168
(lp169
sVnetwork
p170
VNone
p171
sVprimary
p172
I01
sVmtu
p173
I-1
sg71
(lp174
sVroutes
p175
(lp176
sVuse_dhcp
p177
I00
sVtype
p178
Vinterface
p179
sVname
p180
Vnic6
p181
sasVroutes
p182
(lp183
sVuse_dhcp
p184
I00
sVtype
p185
Vovs_bridge
p186
sVname
p187
Vbr-tenant
p188
sasS'swift-storage.yaml'
p189
(lp190
sS'compute.yaml'
p191
(lp192
(dp193
Vaddresses
p194
(lp195
sVnetwork
p196
VControlPlane
p197
sVprimary
p198
I01
sVmtu
p199
I-1
sg71
(lp200
sVroutes
p201
(lp202
sVuse_dhcp
p203
I00
sVtype
p204
Vinterface
p205
sVname
p206
Vnic1
p207
sa(dp208
Vaddresses
p209
(lp210
sVnetwork
p211
VInternalApi
p212
sVprimary
p213
I01
sVmtu
p214
I-1
sg71
(lp215
sVroutes
p216
(lp217
sVuse_dhcp
p218
I00
sVtype
p219
Vinterface
p220
sVname
p221
Vnic3
p222
sa(dp223
Vaddresses
p224
(lp225
sVnetwork
p226
VStorage
p227
sVprimary
p228
I01
sVmtu
p229
I-1
sg71
(lp230
sVroutes
p231
(lp232
sVuse_dhcp
p233
I00
sVtype
p234
Vinterface
p235
sVname
p236
Vnic4
p237
sa(dp238
Vdns_servers
p239
V{get_param: DnsServers}
p240
sVaddresses
p241
(lp242
sVmtu
p243
I-1
sVnetwork
p244
VTenant
p245
sVmembers
p246
(lp247
(dp248
Vaddresses
p249
(lp250
sVnetwork
p251
VNone
p252
sVprimary
p253
I01
sVmtu
p254
I-1
sg71
(lp255
sVroutes
p256
(lp257
sVuse_dhcp
p258
I00
sVtype
p259
Vinterface
p260
sVname
p261
Vnic6
p262
sasVroutes
p263
(lp264
sVuse_dhcp
p265
I00
sVtype
p266
Vovs_bridge
p267
sVname
p268
Vbr-tenant
p269
sass.